(dp1
(I-1
I-1
I-8
tp2
(lp3
F0.25
aF0.5
aF0.5
aF0.5
aF0.5
aF0.75
aF0.25
aF0.75
aF0.25
aF0.5
aF0.5
aF0.5
aF0.5
aF0.75
aF0.25
aF0.75
aF0.25
aF0.5
aF0.5
aF0.5
aF0.5
aF0.75
aF0.25
aF0.75
aF0.25
aF0.5
aF0.5
aF0.5
aF0.5
aF0.75
aF0.25
aF0.75
aF0.25
aF0.5
aF0.5
aF0.5
aF0.5
aF0.75
aF0.25
aF0.75
aF0.25
aF0.5
aF0.5
aF0.5
aF0.5
aF0.75
aF0.25
aF0.75
as(I5
I2
I-5
tp4
g3
s(I-2
I14
I0
tp5
g3
s(I-5
I12
I-5
tp6
g3
s(I-3
I9
I-7
tp7
g3
s(I3
I-1
I-3
tp8
g3
s(I9
I-1
I-14
tp9
g3
s(I4
I0
I-5
tp10
g3
s(I7
I-1
I6
tp11
g3
s(I2
I-1
I-6
tp12
g3
s(I-3
I13
I-7
tp13
g3
s(I-1
I0
I0
tp14
g3
s(I3
I4
I-4
tp15
g3
s(I1
I9
I-1
tp16
g3
s(I-4
I15
I-6
tp17
g3
s(I1
I0
I-1
tp18
g3
s(I-5
I-1
I-5
tp19
g3
s(I7
I-1
I-13
tp20
g3
s(I0
I1
I0
tp21
g3
s(I-2
I11
I-8
tp22
g3
s(I-2
I2
I0
tp23
g3
s(I1
I5
I-1
tp24
g3
s(I-1
I1
I-8
tp25
g3
s(I-4
I12
I-2
tp26
g3
s(I0
I9
I-8
tp27
g3
s(I3
I10
I-4
tp28
g3
s(I3
I0
I-5
tp29
g3
s(I4
I1
I-4
tp30
g3
s(I2
I12
I-2
tp31
g3
s(I-4
I5
I-2
tp32
g3
s(I3
I2
I-5
tp33
g3
s(I-1
I7
I0
tp34
g3
s(I2
I5
I-2
tp35
g3
s(I7
I-1
I-5
tp36
g3
s(I-3
I7
I-7
tp37
g3
s(I-4
I0
I-2
tp38
g3
s(I3
I7
I-3
tp39
g3
s(I-4
I10
I-6
tp40
g3
s(I3
I1
I-3
tp41
g3
s(I-3
I2
I-7
tp42
g3
s(I2
I0
I-2
tp43
g3
s(I-3
I15
I-1
tp44
g3
s(I2
I6
I-6
tp45
g3
s(I-4
I3
I-6
tp46
g3
s(I0
I-1
I0
tp47
g3
s(I5
I2
I-4
tp48
g3
s(I-3
I6
I-1
tp49
g3
s(I-5
I12
I-4
tp50
g3
s(I-2
I13
I-8
tp51
g3
s(I0
I5
I-8
tp52
g3
s(I-3
I14
I-7
tp53
g3
s(I1
I14
I-7
tp54
g3
s(I0
I15
I-8
tp55
g3
s(I-3
I3
I-1
tp56
g3
s(I3
I12
I-3
tp57
g3
s(I4
I2
I-3
tp58
g3
s(I3
I14
I-5
tp59
g3
s(I-2
I-1
I-8
tp60
g3
s(I-5
I2
I-4
tp61
g3
s(I0
I2
I0
tp62
g3
s(I1
I9
I-7
tp63
g3
s(I-5
I10
I-5
tp64
g3
s(I5
I1
I-3
tp65
g3
s(I7
I-1
I7
tp66
g3
s(I3
I3
I-5
tp67
g3
s(I-5
I15
I-3
tp68
g3
s(I6
I1
I-4
tp69
g3
s(I-5
I9
I-3
tp70
g3
s(I-2
I4
I0
tp71
g3
s(I-3
I8
I-7
tp72
g3
s(I3
I4
I-3
tp73
g3
s(I-2
I8
I0
tp74
g3
s(I-1
I16
I-8
tp75
g3
s(I-5
I5
I-3
tp76
g3
s(I1
I-1
I-1
tp77
g3
s(I1
I5
I-7
tp78
g3
s(I-2
I16
I-8
tp79
g3
s(I3
I10
I-3
tp80
g3
s(I1
I3
I-7
tp81
g3
s(I-5
I6
I-5
tp82
g3
s(I4
I1
I-3
tp83
g3
s(I1
I11
I-1
tp84
g3
s(I3
I15
I-5
tp85
g3
s(I-3
I16
I-7
tp86
g3
s(I-1
I16
I0
tp87
g3
s(I7
I-1
I-8
tp88
g3
s(I1
I2
I-1
tp89
g3
s(I6
I-1
I-5
tp90
g3
s(I3
I7
I-4
tp91
g3
s(I3
I1
I-4
tp92
g3
s(I0
I3
I0
tp93
g3
s(I2
I13
I-6
tp94
g3
s(I1
I10
I-7
tp95
g3
s(I-2
I12
I0
tp96
g3
s(I1
I7
I-1
tp97
g3
s(I-5
I11
I-5
tp98
g3
s(I8
I-1
I-14
tp99
g3
s(I5
I2
I-3
tp100
g3
s(I2
I14
I-2
tp101
g3
s(I-4
I11
I-2
tp102
g3
s(I-1
I-1
I0
tp103
g3
s(I-5
I12
I-3
tp104
g3
s(I3
I13
I-4
tp105
g3
s(I-2
I5
I0
tp106
g3
s(I4
I2
I-4
tp107
g3
s(I-4
I6
I-2
tp108
g3
s(I3
I-1
I-5
tp109
g3
s(I-2
I13
I0
tp110
g3
s(I2
I8
I-6
tp111
g3
s(I-4
I1
I-6
tp112
g3
s(I-5
I2
I-3
tp113
g3
s(I-4
I16
I-6
tp114
g3
s(I-3
I8
I-1
tp115
g3
s(I2
I1
I-6
tp116
g3
s(I16
I-1
I8
tp117
g3
s(I1
I6
I-7
tp118
g3
s(I15
I-1
I-14
tp119
g3
s(I1
I12
I-7
tp120
g3
s(I-5
I7
I-5
tp121
g3
s(I5
I1
I-4
tp122
g3
s(I-3
I5
I-1
tp123
g3
s(I7
I-1
I4
tp124
g3
s(I-5
I15
I-4
tp125
g3
s(I6
I1
I-3
tp126
g3
s(I0
I6
I-8
tp127
g3
s(I-5
I9
I-4
tp128
g3
s(I0
I0
I-8
tp129
g3
s(I-1
I3
I-8
tp130
g3
s(I0
I4
I0
tp131
g3
s(I2
I16
I-6
tp132
g3
s(I-5
I8
I-5
tp133
g3
s(I-3
I16
I-1
tp134
g3
s(I-5
I5
I-4
tp135
g3
s(I-4
I-1
I-6
tp136
g3
s(I-3
I11
I-7
tp137
g3
s(I0
I8
I0
tp138
g3
s(I-1
I14
I-8
tp139
g3
s(I-1
I10
I0
tp140
g3
s(I-2
I10
I0
tp141
g3
s(I7
I-1
I-7
tp142
g3
s(I3
I13
I-5
tp143
g3
s(I-1
I0
I-8
tp144
g3
s(I3
I1
I-5
tp145
g3
s(I-5
I16
I-5
tp146
g3
s(I-5
I4
I-5
tp147
g3
s(I11
I-1
I8
tp148
g3
s(I-4
I8
I-6
tp149
g3
s(I2
I12
I-6
tp150
g3
s(I1
I12
I-1
tp151
g3
s(I-1
I11
I-8
tp152
g3
s(I-3
I5
I-7
tp153
g3
s(I0
I5
I0
tp154
g3
s(I2
I15
I-6
tp155
g3
s(I-4
I14
I-6
tp156
g3
s(I3
I12
I-4
tp157
g3
s(I1
I1
I-1
tp158
g3
s(I2
I10
I-6
tp159
g3
s(I3
I6
I-4
tp160
g3
s(I11
I-1
I-14
tp161
g3
s(I-2
I1
I-8
tp162
g3
s(I-4
I7
I-6
tp163
g3
s(I-1
I7
I-8
tp164
g3
s(I9
I-1
I8
tp165
g3
s(I-4
I9
I-2
tp166
g3
s(I-1
I13
I0
tp167
g3
s(I-5
I13
I-5
tp168
g3
s(I-3
I3
I-7
tp169
g3
s(I0
I9
I0
tp170
g3
s(I2
I9
I-2
tp171
g3
s(I10
I-1
I8
tp172
g3
s(I-2
I9
I-8
tp173
g3
s(I-4
I4
I-2
tp174
g3
s(I-2
I3
I0
tp175
g3
s(I7
I-1
I5
tp176
g3
s(I-2
I7
I-8
tp177
g3
s(I0
I11
I-8
tp178
g3
s(I-2
I6
I0
tp179
g3
s(I-5
I9
I-5
tp180
g3
s(I2
I4
I-2
tp181
g3
s(I2
I13
I-2
tp182
g3
s(I3
I10
I-5
tp183
g3
s(I-2
I8
I-8
tp184
g3
s(I-3
I10
I-1
tp185
g3
s(I2
I3
I-6
tp186
g3
s(I3
I15
I-3
tp187
g3
s(I-4
I2
I-6
tp188
g3
s(I-5
I8
I-4
tp189
g3
s(I3
I9
I-3
tp190
g3
s(I7
I-1
I-10
tp191
g3
s(I-1
I9
I0
tp192
g3
s(I4
I6
I-3
tp193
g3
s(I1
I2
I-7
tp194
g3
s(I-2
I6
I-8
tp195
g3
s(I15
I-1
I8
tp196
g3
s(I0
I10
I-8
tp197
g3
s(I-5
I-1
I-4
tp198
g3
s(I4
I6
I-4
tp199
g3
s(I2
I7
I-2
tp200
g3
s(I-5
I4
I-4
tp201
g3
s(I-5
I14
I-4
tp202
g3
s(I-3
I6
I-7
tp203
g3
s(I3
I11
I-3
tp204
g3
s(I-4
I10
I-2
tp205
g3
s(I0
I7
I-8
tp206
g3
s(I-2
I11
I0
tp207
g3
s(I-3
I12
I-7
tp208
g3
s(I16
I-1
I-14
tp209
g3
s(I7
I-1
I-2
tp210
g3
s(I-5
I16
I-4
tp211
g3
s(I-1
I9
I-8
tp212
g3
s(I-5
I11
I-3
tp213
g3
s(I0
I10
I0
tp214
g3
s(I0
I1
I-8
tp215
g3
s(I-1
I8
I0
tp216
g3
s(I1
I1
I-7
tp217
g3
s(I17
I-1
I8
tp218
g3
s(I1
I15
I-7
tp219
g3
s(I-5
I2
I-5
tp220
g3
s(I3
I0
I-3
tp221
g3
s(I-5
I0
I-3
tp222
g3
s(I3
I3
I-3
tp223
g3
s(I14
I-1
I8
tp224
g3
s(I3
I11
I-5
tp225
g3
s(I-5
I7
I-3
tp226
g3
s(I-2
I7
I0
tp227
g3
s(I-5
I1
I-3
tp228
g3
s(I-5
I-1
I-3
tp229
g3
s(I7
I-1
I2
tp230
g3
s(I-3
I0
I-7
tp231
g3
s(I6
I1
I-5
tp232
g3
s(I3
I6
I-3
tp233
g3
s(I-1
I13
I-8
tp234
g3
s(I2
I11
I-6
tp235
g3
s(I-2
I1
I0
tp236
g3
s(I6
I2
I-3
tp237
g3
s(I-2
I16
I0
tp238
g3
s(I-2
I14
I-8
tp239
g3
s(I-5
I4
I-3
tp240
g3
s(I1
I14
I-1
tp241
g3
s(I3
I3
I-4
tp242
g3
s(I3
I16
I-5
tp243
g3
s(I-2
I15
I0
tp244
g3
s(I0
I7
I0
tp245
g3
s(I1
I0
I-7
tp246
g3
s(I-1
I3
I0
tp247
g3
s(I-1
I4
I-8
tp248
g3
s(I1
I3
I-1
tp249
g3
s(I-5
I14
I-3
tp250
g3
s(I2
I2
I-2
tp251
g3
s(I-4
I5
I-6
tp252
g3
s(I-4
I15
I-2
tp253
g3
s(I3
I15
I-4
tp254
g3
s(I-5
I8
I-3
tp255
g3
s(I3
I9
I-4
tp256
g3
s(I0
I11
I0
tp257
g3
s(I2
I5
I-6
tp258
g3
s(I-1
I2
I-8
tp259
g3
s(I7
I-1
I-9
tp260
g3
s(I-2
I9
I0
tp261
g3
s(I-4
I0
I-6
tp262
g3
s(I1
I-1
I-7
tp263
g3
s(I1
I8
I-7
tp264
g3
s(I-5
I3
I-5
tp265
g3
s(I-4
I12
I-6
tp266
g3
s(I17
I-1
I-14
tp267
g3
s(I5
I0
I-3
tp268
g3
s(I2
I6
I-2
tp269
g3
s(I-4
I3
I-2
tp270
g3
s(I-1
I15
I-8
tp271
g3
s(I3
I8
I-5
tp272
g3
s(I0
I2
I-8
tp273
g3
s(I2
I11
I-2
tp274
g3
s(I-2
I4
I-8
tp275
g3
s(I0
I12
I-8
tp276
g3
s(I-2
I2
I-8
tp277
g3
s(I-3
I12
I-1
tp278
g3
s(I-1
I10
I-8
tp279
g3
s(I6
I0
I-5
tp280
g3
s(I10
I-1
I-14
tp281
g3
s(I-1
I5
I-8
tp282
g3
s(I-3
I9
I-1
tp283
g3
s(I4
I-1
I-5
tp284
g3
s(I2
I0
I-6
tp285
g3
s(I-5
I1
I-5
tp286
g3
s(I-5
I11
I-4
tp287
g3
s(I-3
I0
I-1
tp288
g3
s(I1
I16
I-7
tp289
g3
s(I-5
I5
I-5
tp290
g3
s(I1
I4
I-7
tp291
g3
s(I-3
I-1
I-1
tp292
g3
s(I-5
I7
I-4
tp293
g3
s(I-5
I1
I-4
tp294
g3
s(I7
I-1
I3
tp295
g3
s(I0
I4
I-8
tp296
g3
s(I0
I12
I0
tp297
g3
s(I0
I-1
I-8
tp298
g3
s(I-1
I14
I0
tp299
g3
s(I3
I4
I-5
tp300
g3
s(I5
I-1
I-5
tp301
g3
s(I6
I2
I-4
tp302
g3
s(I-2
I-1
I0
tp303
g3
s(I-1
I6
I0
tp304
g3
s(I-5
I16
I-3
tp305
g3
s(I3
I16
I-4
tp306
g3
s(I-3
I7
I-1
tp307
g3
s(I-1
I2
I0
tp308
g3
s(I-3
I1
I-7
tp309
g3
s(I3
I13
I-3
tp310
g3
s(I0
I16
I0
tp311
g3
s(I3
I9
I-5
tp312
g3
s(I7
I-1
I-12
tp313
g3
s(I8
I-1
I8
tp314
g3
s(I1
I8
I-1
tp315
g3
s(I-2
I3
I-8
tp316
g3
s(I3
I8
I-4
tp317
g3
s(I1
I13
I-1
tp318
g3
s(I3
I2
I-4
tp319
g3
s(I-1
I6
I-8
tp320
g3
s(I1
I4
I-1
tp321
g3
s(I-4
I13
I-2
tp322
g3
s(I0
I13
I0
tp323
g3
s(I2
I7
I-6
tp324
g3
s(I-1
I15
I0
tp325
g3
s(I-4
I6
I-6
tp326
g3
s(I2
I3
I-2
tp327
g3
s(I-3
I15
I-7
tp328
g3
s(I-4
I8
I-2
tp329
g3
s(I3
I14
I-4
tp330
g3
s(I3
I12
I-5
tp331
g3
s(I2
I2
I-6
tp332
g3
s(I1
I16
I-1
tp333
g3
s(I2
I8
I-2
tp334
g3
s(I-4
I1
I-2
tp335
g3
s(I2
I14
I-6
tp336
g3
s(I-4
I11
I-6
tp337
g3
s(I-1
I11
I0
tp338
g3
s(I2
I1
I-2
tp339
g3
s(I-3
I14
I-1
tp340
g3
s(I-2
I15
I-8
tp341
g3
s(I0
I3
I-8
tp342
g3
s(I3
I5
I-3
tp343
g3
s(I0
I13
I-8
tp344
g3
s(I-3
I11
I-1
tp345
g3
s(I7
I-1
I0
tp346
g3
s(I3
I6
I-5
tp347
g3
s(I-3
I2
I-1
tp348
g3
s(I-4
I16
I-2
tp349
g3
s(I12
I-1
I-14
tp350
g3
s(I-5
I0
I-4
tp351
g3
s(I-5
I10
I-4
tp352
g3
s(I6
I2
I-5
tp353
g3
s(I2
I16
I-2
tp354
g3
s(I-1
I12
I-8
tp355
g3
s(I13
I-1
I-14
tp356
g3
s(I4
I0
I-3
tp357
g3
s(I3
I16
I-3
tp358
g3
s(I0
I6
I0
tp359
g3
s(I6
I-1
I-3
tp360
g3
s(I-5
I6
I-4
tp361
g3
s(I0
I14
I0
tp362
g3
s(I-3
I4
I-7
tp363
g3
s(I-1
I12
I0
tp364
g3
s(I2
I-1
I-2
tp365
g3
s(I7
I-1
I-11
tp366
g3
s(I7
I-1
I-1
tp367
g3
s(I-4
I-1
I-2
tp368
g3
s(I-5
I3
I-3
tp369
g3
s(I-5
I13
I-3
tp370
g3
s(I-2
I0
I0
tp371
g3
s(I5
I0
I-5
tp372
g3
s(I1
I7
I-7
tp373
g3
s(I3
I8
I-3
tp374
g3
s(I1
I13
I-7
tp375
g3
s(I3
I2
I-3
tp376
g3
s(I1
I11
I-7
tp377
g3
s(I-5
I14
I-5
tp378
g3
s(I7
I-1
I-3
tp379
g3
s(I6
I0
I-3
tp380
g3
s(I-4
I13
I-6
tp381
g3
s(I3
I7
I-5
tp382
g3
s(I4
I-1
I-3
tp383
g3
s(I-2
I5
I-8
tp384
g3
s(I1
I10
I-1
tp385
g3
s(I3
I14
I-3
tp386
g3
s(I1
I15
I-1
tp387
g3
s(I1
I6
I-1
tp388
g3
s(I-2
I0
I-8
tp389
g3
s(I4
I2
I-5
tp390
g3
s(I3
I11
I-4
tp391
g3
s(I3
I5
I-4
tp392
g3
s(I0
I15
I0
tp393
g3
s(I2
I15
I-2
tp394
g3
s(I7
I-1
I1
tp395
g3
s(I-4
I14
I-2
tp396
g3
s(I2
I4
I-6
tp397
g3
s(I2
I10
I-2
tp398
g3
s(I-4
I7
I-2
tp399
g3
s(I-3
I10
I-7
tp400
g3
s(I-4
I9
I-6
tp401
g3
s(I5
I-1
I-3
tp402
g3
s(I-5
I10
I-3
tp403
g3
s(I-1
I5
I0
tp404
g3
s(I-1
I1
I0
tp405
g3
s(I5
I1
I-5
tp406
g3
s(I2
I9
I-6
tp407
g3
s(I-4
I2
I-2
tp408
g3
s(I-4
I4
I-6
tp409
g3
s(I7
I-1
I-14
tp410
g3
s(I-5
I15
I-5
tp411
g3
s(I-3
I13
I-1
tp412
g3
s(I-2
I12
I-8
tp413
g3
s(I-5
I6
I-3
tp414
g3
s(I-2
I10
I-8
tp415
g3
s(I0
I14
I-8
tp416
g3
s(I-3
I4
I-1
tp417
g3
s(I0
I8
I-8
tp418
g3
s(I14
I-1
I-14
tp419
g3
s(I-3
I1
I-1
tp420
g3
s(I7
I-1
I-6
tp421
g3
s(I-5
I0
I-5
tp422
g3
s(I-5
I3
I-4
tp423
g3
s(I-5
I13
I-4
tp424
g3
s(I4
I1
I-5
tp425
g3
s(I0
I0
I0
tp426
g3
s(I-1
I8
I-8
tp427
g3
s(I-3
I-1
I-7
tp428
g3
s(I0
I16
I-8
tp429
g3
s(I3
I5
I-5
tp430
g3
s(I-1
I4
I0
tp431
g3
s.