(dp1
(I10
I4
I3
tp2
(lp3
F0.25
aF0.5
aF0.5
aF0.5
aF0.5
aF0.75
aF0.25
aF0.75
aF0.25
aF0.5
aF0.5
aF0.5
aF0.5
aF0.75
aF0.25
aF0.75
aF0.25
aF0.5
aF0.5
aF0.5
aF0.5
aF0.75
aF0.25
aF0.75
aF0.25
aF0.5
aF0.5
aF0.5
aF0.5
aF0.75
aF0.25
aF0.75
aF0.25
aF0.5
aF0.5
aF0.5
aF0.5
aF0.75
aF0.25
aF0.75
aF0.25
aF0.5
aF0.5
aF0.5
aF0.5
aF0.75
aF0.25
aF0.75
as(I10
I5
I-4
tp4
(lp5
F0.75
aF0.25
aF1
aF0.25
aF1
aF0.5
aF0.75
aF0.5
aF0.75
aF0.25
aF1
aF0.25
aF1
aF0.5
aF0.75
aF0.5
aF0.75
aF0.25
aF1
aF0.25
aF1
aF0.5
aF0.75
aF0.5
aF0.75
aF0.25
aF1
aF0.25
aF1
aF0.5
aF0.75
aF0.5
aF0.75
aF0.25
aF1
aF0.25
aF1
aF0.5
aF0.75
aF0.5
aF0.75
aF0.25
aF1
aF0.25
aF1
aF0.5
aF0.75
aF0.5
as(I10
I3
I3
tp6
g3
s(I11
I9
I3
tp7
(lp8
F0
aF0.5
aF0.25
aF0.5
aF0.25
aF0.75
aF0
aF0.75
aF0
aF0.5
aF0.25
aF0.5
aF0.25
aF0.75
aF0
aF0.75
aF0
aF0.5
aF0.25
aF0.5
aF0.25
aF0.75
aF0
aF0.75
aF0
aF0.5
aF0.25
aF0.5
aF0.25
aF0.75
aF0
aF0.75
aF0
aF0.5
aF0.25
aF0.5
aF0.25
aF0.75
aF0
aF0.75
aF0
aF0.5
aF0.25
aF0.5
aF0.25
aF0.75
aF0
aF0.75
as(I10
I6
I-1
tp9
g3
s(I13
I4
I2
tp10
g3
s(I7
I6
I2
tp11
g3
s(I10
I4
I5
tp12
g3
s(I9
I8
I3
tp13
(lp14
F0
aF0.5
aF0.25
aF0.5
aF0.25
aF0.75
aF0
aF0.75
aF0
aF0.5
aF0.25
aF0.5
aF0.25
aF0.75
aF0
aF0.75
aF0
aF0.5
aF0.25
aF0.5
aF0.25
aF0.75
aF0
aF0.75
aF0
aF0.5
aF0.25
aF0.5
aF0.25
aF0.75
aF0
aF0.75
aF0
aF0.5
aF0.25
aF0.5
aF0.25
aF0.75
aF0
aF0.75
aF0
aF0.5
aF0.25
aF0.5
aF0.25
aF0.75
aF0
aF0.75
as(I8
I3
I2
tp15
g3
s(I6
I7
I2
tp16
(lp17
F0.75
aF0.25
aF1
aF0.25
aF1
aF0.5
aF0.75
aF0.5
aF0.75
aF0.25
aF1
aF0.25
aF1
aF0.5
aF0.75
aF0.5
aF0.75
aF0.25
aF1
aF0.25
aF1
aF0.5
aF0.75
aF0.5
aF0.75
aF0.25
aF1
aF0.25
aF1
aF0.5
aF0.75
aF0.5
aF0.75
aF0.25
aF1
aF0.25
aF1
aF0.5
aF0.75
aF0.5
aF0.75
aF0.25
aF1
aF0.25
aF1
aF0.5
aF0.75
aF0.5
as(I10
I5
I6
tp18
g5
s(I10
I6
I-2
tp19
g5
s(I8
I9
I2
tp20
g3
s(I13
I7
I2
tp21
g3
s(I9
I8
I1
tp22
g14
s(I11
I8
I2
tp23
g3
s(I8
I6
I2
tp24
g3
s(I10
I11
I0
tp25
g3
s(I10
I4
I9
tp26
g5
s(I10
I3
I-5
tp27
g5
s(I11
I6
I3
tp28
g8
s(I10
I12
I0
tp29
(lp30
F0.75
aF0
aF1
aF0
aF1
aF0.25
aF0.75
aF0.25
aF0.75
aF0
aF1
aF0
aF1
aF0.25
aF0.75
aF0.25
aF0.75
aF0
aF1
aF0
aF1
aF0.25
aF0.75
aF0.25
aF0.75
aF0
aF1
aF0
aF1
aF0.25
aF0.75
aF0.25
aF0.75
aF0
aF1
aF0
aF1
aF0.25
aF0.75
aF0.25
aF0.75
aF0
aF1
aF0
aF1
aF0.25
aF0.75
aF0.25
as(I3
I2
I2
tp31
g17
s(I10
I11
I2
tp32
g3
s(I17
I3
I2
tp33
g5
s(I10
I-1
I11
tp34
g5
s(I15
I7
I2
tp35
g5
s(I17
I5
I2
tp36
g5
s(I13
I10
I2
tp37
g3
s(I3
I1
I2
tp38
g17
s(I10
I12
I2
tp39
g3
s(I9
I6
I3
tp40
g14
s(I19
I-1
I2
tp41
g5
s(I1
I2
I2
tp42
g17
s(I12
I7
I2
tp43
g3
s(I10
I12
I4
tp44
g30
s(I10
I7
I0
tp45
g3
s(I12
I4
I2
tp46
g3
s(I10
I5
I-1
tp47
g3
s(I11
I10
I3
tp48
(lp49
F0.75
aF0
aF1
aF0
aF1
aF0.25
aF0.75
aF0.25
aF0.75
aF0
aF1
aF0
aF1
aF0.25
aF0.75
aF0.25
aF0.75
aF0
aF1
aF0
aF1
aF0.25
aF0.75
aF0.25
aF0.75
aF0
aF1
aF0
aF1
aF0.25
aF0.75
aF0.25
aF0.75
aF0
aF1
aF0
aF1
aF0.25
aF0.75
aF0.25
aF0.75
aF0
aF1
aF0
aF1
aF0.25
aF0.75
aF0.25
as(I10
I9
I5
tp50
g3
s(I10
I7
I2
tp51
g3
s(I11
I9
I1
tp52
g8
s(I10
I1
I10
tp53
g5
s(I10
I6
I-4
tp54
g5
s(I7
I10
I2
tp55
g3
s(I10
I10
I3
tp56
g3
s(I11
I10
I1
tp57
g49
s(I14
I7
I2
tp58
g5
s(I10
I9
I3
tp59
g3
s(I10
I7
I4
tp60
g3
s(I10
I2
I10
tp61
g5
s(I9
I14
I2
tp62
g49
s(I7
I5
I2
tp63
g3
s(I10
I10
I1
tp64
g3
s(I9
I7
I2
tp65
g3
s(I10
I6
I7
tp66
g5
s(I8
I10
I2
tp67
g3
s(I1
I-1
I2
tp68
g17
s(I10
I2
I11
tp69
g5
s(I9
I9
I2
tp70
g3
s(I5
I6
I2
tp71
g17
s(I10
I9
I-1
tp72
g3
s(I16
I6
I2
tp73
g5
s(I10
I10
I-1
tp74
g3
s(I18
I1
I2
tp75
g5
s(I10
I6
I5
tp76
g3
s(I10
I7
I-2
tp77
g5
s(I18
I2
I2
tp78
g5
s(I10
I9
I1
tp79
g3
s(I10
I10
I5
tp80
g3
s(I9
I4
I2
tp81
g3
s(I10
I6
I3
tp82
g3
s(I10
I5
I3
tp83
g3
s(I10
I2
I-5
tp84
g5
s(I11
I7
I2
tp85
g3
s(I7
I8
I2
tp86
g3
s(I10
I7
I-3
tp87
g5
s(I2
I3
I2
tp88
g17
s(I10
I5
I1
tp89
g3
s(I10
I2
I-7
tp90
g5
s(I8
I7
I2
tp91
g3
s(I10
I8
I4
tp92
g3
s(I10
I5
I7
tp93
g5
s(I8
I4
I2
tp94
g3
s(I10
I6
I1
tp95
g3
s(I11
I12
I2
tp96
g3
s(I10
I8
I6
tp97
g5
s(I4
I5
I2
tp98
g17
s(I15
I6
I2
tp99
g5
s(I10
I5
I5
tp100
g3
s(I17
I4
I2
tp101
g5
s(I11
I11
I2
tp102
g3
s(I10
I13
I2
tp103
g49
s(I10
I5
I-2
tp104
g5
s(I15
I5
I2
tp105
g5
s(I10
I-1
I-7
tp106
g5
s(I10
I8
I0
tp107
g3
s(I9
I10
I1
tp108
g30
s(I10
I3
I4
tp109
g3
s(I10
I0
I11
tp110
g5
s(I10
I14
I2
tp111
g49
s(I13
I6
I2
tp112
g3
s(I3
I5
I2
tp113
g17
s(I10
I8
I2
tp114
g3
s(I10
I1
I-5
tp115
g5
s(I9
I10
I3
tp116
g30
s(I10
I11
I4
tp117
g3
s(I13
I9
I2
tp118
g3
s(I9
I10
I2
tp119
g3
s(I12
I3
I2
tp120
g3
s(I6
I8
I2
tp121
g17
s(I12
I9
I2
tp122
g3
s(I10
I1
I-7
tp123
g5
s(I19
I1
I2
tp124
g5
s(I10
I3
I0
tp125
g3
s(I1
I1
I2
tp126
g17
s(I10
I4
I4
tp127
g3
s(I17
I2
I2
tp128
g5
s(I16
I5
I2
tp129
g5
s(I10
I10
I0
tp130
g3
s(I10
I3
I2
tp131
g3
s(I7
I7
I2
tp132
g3
s(I10
I7
I3
tp133
g3
s(I2
I1
I2
tp134
g17
s(I10
I4
I2
tp135
g3
s(I10
I7
I6
tp136
g5
s(I9
I8
I2
tp137
g3
s(I10
I4
I-1
tp138
g3
s(I10
I3
I9
tp139
g5
s(I10
I11
I5
tp140
g30
s(I9
I11
I2
tp141
g3
s(I12
I5
I2
tp142
g3
s(I11
I8
I1
tp143
g8
s(I9
I13
I2
tp144
g49
s(I12
I12
I2
tp145
g30
s(I12
I10
I2
tp146
g3
s(I10
I3
I-6
tp147
g5
s(I11
I6
I2
tp148
g3
s(I5
I5
I2
tp149
g17
s(I10
I12
I1
tp150
g3
s(I10
I11
I1
tp151
g3
s(I11
I5
I2
tp152
g3
s(I10
I16
I2
tp153
g49
s(I10
I3
I10
tp154
g5
s(I10
I12
I3
tp155
g3
s(I10
I8
I-2
tp156
g5
s(I7
I4
I2
tp157
g3
s(I10
I11
I3
tp158
g3
s(I9
I6
I2
tp159
g3
s(I9
I6
I1
tp160
g14
s(I11
I8
I3
tp161
g8
s(I7
I11
I2
tp162
g30
s(I6
I5
I2
tp163
g17
s(I8
I11
I2
tp164
g3
s(I10
I8
I-1
tp165
g3
s(I19
I2
I2
tp166
g5
s(I10
I5
I9
tp167
g5
s(I6
I6
I2
tp168
g17
s(I11
I10
I2
tp169
g3
s(I18
I3
I2
tp170
g5
s(I8
I8
I2
tp171
g3
s(I10
I9
I4
tp172
g3
s(I10
I7
I1
tp173
g3
s(I11
I9
I2
tp174
g3
s(I10
I6
I-3
tp175
g5
s(I11
I6
I1
tp176
g8
s(I10
I9
I2
tp177
g3
s(I4
I6
I2
tp178
g17
s(I9
I9
I1
tp179
g14
s(I10
I5
I-3
tp180
g5
s(I10
I1
I11
tp181
g5
s(I13
I8
I2
tp182
g3
s(I10
I10
I2
tp183
g3
s(I9
I7
I3
tp184
g14
s(I10
I6
I8
tp185
g5
s(I10
I9
I0
tp186
g3
s(I10
I7
I5
tp187
g3
s(I10
I0
I-7
tp188
g5
s(I9
I9
I3
tp189
g14
s(I13
I11
I2
tp190
g30
s(I1
I0
I2
tp191
g17
s(I10
I1
I9
tp192
g5
s(I8
I5
I2
tp193
g3
s(I13
I5
I2
tp194
g3
s(I9
I7
I1
tp195
g14
s(I10
I6
I6
tp196
g5
s(I10
I7
I7
tp197
g5
s(I11
I7
I1
tp198
g8
s(I10
I5
I-5
tp199
g5
s(I10
I6
I4
tp200
g3
s(I10
I5
I2
tp201
g3
s(I11
I7
I3
tp202
g8
s(I10
I15
I2
tp203
g49
s(I10
I10
I4
tp204
g3
s(I3
I4
I2
tp205
g17
s(I10
I6
I2
tp206
g3
s(I14
I5
I2
tp207
g5
s(I17
I1
I2
tp208
g5
s(I10
I5
I0
tp209
g3
s(I10
I2
I-6
tp210
g5
s(I10
I7
I-1
tp211
g3
s(I9
I12
I2
tp212
g3
s(I3
I3
I2
tp213
g17
s(I14
I6
I2
tp214
g5
s(I10
I8
I5
tp215
g3
s(I10
I6
I0
tp216
g3
s(I12
I11
I2
tp217
g3
s(I14
I8
I2
tp218
g5
s(I19
I0
I2
tp219
g5
s(I12
I8
I2
tp220
g3
s(I10
I5
I4
tp221
g3
s(I5
I7
I2
tp222
g17
s(I10
I17
I2
tp223
(lp224
F0.5
aF0.5
aF0.75
aF0.5
aF0.75
aF0.75
aF0.5
aF0.75
aF0.5
aF0.5
aF0.75
aF0.5
aF0.75
aF0.75
aF0.5
aF0.75
aF0.5
aF0.5
aF0.75
aF0.5
aF0.75
aF0.75
aF0.5
aF0.75
aF0.5
aF0.5
aF0.75
aF0.5
aF0.75
aF0.75
aF0.5
aF0.75
aF0.5
aF0.5
aF0.75
aF0.5
aF0.75
aF0.75
aF0.5
aF0.75
aF0.5
aF0.5
aF0.75
aF0.5
aF0.75
aF0.75
aF0.5
aF0.75
as(I12
I6
I2
tp225
g3
s(I10
I8
I1
tp226
g3
s(I10
I14
I3
tp227
g49
s(I10
I11
I-1
tp228
g30
s(I10
I13
I3
tp229
g49
s(I10
I8
I3
tp230
g3
s(I10
I1
I-6
tp231
g5
s(I10
I4
I0
tp232
g3
s(I10
I5
I8
tp233
g5
s(I7
I9
I2
tp234
g3
s(I10
I14
I1
tp235
g49
s(I9
I3
I2
tp236
g3
s(I10
I13
I1
tp237
g49
s(I2
I2
I2
tp238
g17
s(I9
I5
I2
tp239
g3
s(I10
I4
I-5
tp240
g5
s(I11
I14
I2
tp241
g49
s(I10
I2
I9
tp242
g5
s(I8
I12
I2
tp243
g30
s(I10
I4
I1
tp244
g3
s(I11
I4
I2
tp245
g3
s(I10
I3
I1
tp246
g3
s(I11
I13
I2
tp247
g49
s(I11
I3
I2
tp248
g3
s.